target datalayout = "e-m:e-p270:32:32-p271:32:32-p272:64:64-i64:64-i128:128-f80:128-n8:16:32:64-S128"
target triple = "x86_64-unknown-linux-gnu"

%class.symbol = type { ptr }
%class.rational = type { %class.mpq }
%class.mpq = type { %class.mpz, %class.mpz }
%class.mpz = type { i32, i8, ptr }
%"class.opt::context::scoped_state" = type { ptr, %class.arith_util, %class.bv_util, %class.svector, %class.svector, %class.svector, %class.svector, %class.svector, %class.map, %class.ref_vector, %class.ref_vector, %class.vector.1 }
%class.arith_util = type { ptr, ptr }
%class.bv_util = type { %class.bv_recognizers, ptr, ptr }
%class.bv_recognizers = type { i32 }
%class.svector = type { %class.vector }
%class.vector = type { ptr }
%class.map = type { %class.table2map }
%class.table2map = type { %class.core_hashtable }
%class.core_hashtable = type <{ ptr, i32, i32, i32, [4 x i8] }>
%class.ref_vector = type { %class.ref_vector_core }
%class.ref_vector_core = type { %class.ref_manager_wrapper, %class.ptr_vector }
%class.ref_manager_wrapper = type { ptr }
%class.ptr_vector = type { %class.vector.0 }
%class.vector.0 = type { ptr }
%class.vector.1 = type { ptr }
%"struct.opt::context::objective" = type <{ i32, [4 x i8], %class.obj_ref, %class.ref_vector, %class.vector.2, %"class.opt::adjust_value", %class.symbol, i32, [4 x i8] }>
%class.obj_ref = type { ptr, ptr }
%class.vector.2 = type { ptr }
%"class.opt::adjust_value" = type <{ %class.rational, i8, [7 x i8] }>
%"class.std::__cxx11::basic_string" = type { %"struct.std::__cxx11::basic_string<char>::_Alloc_hider", i64, %union.anon }
%"struct.std::__cxx11::basic_string<char>::_Alloc_hider" = type { ptr }
%union.anon = type { i64, [8 x i8] }
%class.params_ref = type { ptr }
%"class.opt::context" = type { %class.opt_wrapper, %"class.opt::pareto_callback", %"class.opt::maxsat_context", double, %"struct.opt::on_model_t", %"class.std::function", i8, %class.arith_util, %class.bv_util, %class.ref_vector, %class.ref.34, %class.ref.35, %class.ref.35, %class.scoped_ptr, i8, %class.scoped_ptr.36, %class.ref_vector_core.37, i32, %class.params_ref, %"class.opt::optsmt", %class.map.47, %"class.opt::context::scoped_state", %class.vector.1, %class.ref.46, %class.ref, %class.ref.51, %class.ref_vector_core.37, i32, [4 x i8], %class.obj_map.52, %class.obj_map.57, %class.ref_vector.62, %class.ref_vector, %class.ref.67, i8, i8, i8, i8, i8, i8, %class.symbol, %class.symbol, %class.svector.12, %"class.std::__cxx11::basic_string" }
%class.opt_wrapper = type { %class.check_sat_result }
%class.check_sat_result = type { ptr, ptr, %class.ref_vector, %class.obj_ref, i32, i32, %class.ref, double }
%"class.opt::pareto_callback" = type { ptr }
%"class.opt::maxsat_context" = type { ptr }
%"struct.opt::on_model_t" = type { ptr, ptr, ptr, ptr }
%"class.std::function" = type { %"class.std::_Function_base", ptr }
%"class.std::_Function_base" = type { %"union.std::_Any_data", ptr }
%"union.std::_Any_data" = type { %"union.std::_Nocopy_types" }
%"union.std::_Nocopy_types" = type { { i64, i64 } }
%class.ref.34 = type { ptr }
%class.ref.35 = type { ptr }
%class.scoped_ptr = type { ptr }
%class.scoped_ptr.36 = type { ptr }
%"class.opt::optsmt" = type { ptr, ptr, ptr, %class.vector.40, %class.vector.40, %class.ref_vector.41, %class.ref_vector, %class.svector.10, %class.symbol, %class.ref.46, %class.ref.46, %class.svector.12, %class.ref_vector_core.37 }
%class.vector.40 = type { ptr }
%class.ref_vector.41 = type { %class.ref_vector_core.42 }
%class.ref_vector_core.42 = type { %class.ref_manager_wrapper.43, %class.ptr_vector.44 }
%class.ref_manager_wrapper.43 = type { ptr }
%class.ptr_vector.44 = type { %class.vector.45 }
%class.vector.45 = type { ptr }
%class.svector.10 = type { %class.vector.11 }
%class.vector.11 = type { ptr }
%class.map.47 = type { %class.table2map.48 }
%class.table2map.48 = type { %class.core_hashtable.49 }
%class.core_hashtable.49 = type <{ ptr, i32, i32, i32, [4 x i8] }>
%class.ref.46 = type { ptr }
%class.ref = type { ptr }
%class.ref.51 = type { ptr }
%class.ref_vector_core.37 = type { %class.ptr_vector.38 }
%class.ptr_vector.38 = type { %class.vector.39 }
%class.vector.39 = type { ptr }
%class.obj_map.52 = type { %class.core_hashtable.53 }
%class.core_hashtable.53 = type <{ ptr, i32, i32, i32, [4 x i8] }>
%class.obj_map.57 = type { %class.core_hashtable.58 }
%class.core_hashtable.58 = type <{ ptr, i32, i32, i32, [4 x i8] }>
%class.ref_vector.62 = type { %class.ref_vector_core.63 }
%class.ref_vector_core.63 = type { %class.ref_manager_wrapper.64, %class.ptr_vector.65 }
%class.ref_manager_wrapper.64 = type { ptr }
%class.ptr_vector.65 = type { %class.vector.66 }
%class.vector.66 = type { ptr }
%class.ref.67 = type { ptr }
%class.svector.12 = type { %class.vector.13 }
%class.vector.13 = type { ptr }

; Function Attrs: mustprogress nounwind uwtable
define linkonce_odr hidden noundef nonnull align 8 dereferenceable(100) ptr @_ZN6vectorIN3opt7context9objectiveELb1EjEixEj(ptr noundef nonnull align 8 dereferenceable(8) %this, i32 noundef %idx) #4 comdat align 2 {
entry:
  %this.addr = alloca ptr, align 8
  %idx.addr = alloca i32, align 4
  store ptr %this, ptr %this.addr, align 8
  store i32 %idx, ptr %idx.addr, align 4
  %this1 = load ptr, ptr %this.addr, align 8
  %m_data = getelementptr inbounds %class.vector.1, ptr %this1, i32 0, i32 0
  %0 = load ptr, ptr %m_data, align 8
  %1 = load i32, ptr %idx.addr, align 4
  %idxprom = zext i32 %1 to i64
  %arrayidx = getelementptr inbounds %"struct.opt::context::objective", ptr %0, i64 %idxprom
  ret ptr %arrayidx
}

; Function Attrs: mustprogress uwtable
define hidden void @_ZN3opt7context10add_offsetEjRK8rational(ptr noundef nonnull align 8 dereferenceable(792) %this, i32 noundef %id, ptr noundef nonnull align 8 dereferenceable(32) %o) unnamed_addr #5 align 2 {
entry:
  %this.addr = alloca ptr, align 8
  %id.addr = alloca i32, align 4
  %o.addr = alloca ptr, align 8
  store ptr %this, ptr %this.addr, align 8
  store i32 %id, ptr %id.addr, align 4
  store ptr %o, ptr %o.addr, align 8
  %this1 = load ptr, ptr %this.addr, align 8
  %m_objectives = getelementptr inbounds %"class.opt::context", ptr %this1, i32 0, i32 22
  %0 = load i32, ptr %id.addr, align 4
  %call = call noundef nonnull align 8 dereferenceable(100) ptr @_ZN6vectorIN3opt7context9objectiveELb1EjEixEj(ptr noundef nonnull align 8 dereferenceable(8) %m_objectives, i32 noundef %0)
  %m_adjust_value = getelementptr inbounds %"struct.opt::context::objective", ptr %call, i32 0, i32 5
  %1 = load ptr, ptr %o.addr, align 8
  call void @_ZN3opt12adjust_value10add_offsetERK8rational(ptr noundef nonnull align 8 dereferenceable(33) %m_adjust_value, ptr noundef nonnull align 8 dereferenceable(32) %1)
  ret void
}

; Function Attrs: uwtable
define hidden void @_ZThn80_N3opt7context10add_offsetEjRK8rational(ptr noundef %this, i32 noundef %id, ptr noundef nonnull align 8 dereferenceable(32) %o) unnamed_addr #0 align 2 {
entry:
  %this.addr = alloca ptr, align 8
  %id.addr = alloca i32, align 4
  %o.addr = alloca ptr, align 8
  store ptr %this, ptr %this.addr, align 8
  store i32 %id, ptr %id.addr, align 4
  store ptr %o, ptr %o.addr, align 8
  %this1 = load ptr, ptr %this.addr, align 8
  %0 = getelementptr inbounds i8, ptr %this1, i64 -80
  %1 = load i32, ptr %id.addr, align 4
  %2 = load ptr, ptr %o.addr, align 8
  tail call void @_ZN3opt7context10add_offsetEjRK8rational(ptr noundef nonnull align 8 dereferenceable(792) %0, i32 noundef %1, ptr noundef nonnull align 8 dereferenceable(32) %2)
  ret void
}