; Function Attrs: uwtable
define hidden void @_ZThn80_N3opt7context10add_offsetEjRK8rational(ptr nocapture noundef readonly %this, i32 noundef %id, ptr noundef nonnull align 8 dereferenceable(32) %o) unnamed_addr #13 align 2 {
entry:
  %m_objectives.i = getelementptr inbounds i8, ptr %this, i64 512
  %0 = load ptr, ptr %m_objectives.i, align 8
  %idxprom.i.i = zext i32 %id to i64
  %m_adjust_value.i = getelementptr inbounds %"struct.opt::context::objective", ptr %0, i64 %idxprom.i.i, i32 5
  tail call void @_ZN3opt12adjust_value10add_offsetERK8rational(ptr noundef nonnull align 8 dereferenceable(33) %m_adjust_value.i, ptr noundef nonnull align 8 dereferenceable(32) %o)
  ret void
}